; ModuleID = '16/781.c'
source_filename = "16/781.c"
target datalayout = "e-m:e-p270:32:32-p271:32:32-p272:64:64-i64:64-f80:128-n8:16:32:64-S128"
target triple = "x86_64-pc-linux-gnu"

@.str = private unnamed_addr constant [3 x i8] c"%d\00", align 1
@.str.1 = private unnamed_addr constant [9 x i8] c"%d%d%d%d\00", align 1
@.str.2 = private unnamed_addr constant [7 x i8] c"%d%d%d\00", align 1
@.str.3 = private unnamed_addr constant [5 x i8] c"%d%d\00", align 1
@.str.4 = private unnamed_addr constant [2 x i8] c"0\00", align 1
@.str.5 = private unnamed_addr constant [6 x i8] c"00001\00", align 1

; Function Attrs: noinline nounwind uwtable
define dso_local i32 @main() #0 {
  %1 = alloca i32, align 4
  %2 = alloca i32, align 4
  %3 = alloca i32, align 4
  %4 = alloca i32, align 4
  %5 = alloca i32, align 4
  %6 = alloca i32, align 4
  store i32 0, i32* %1, align 4
  %7 = call i32 (i8*, ...) @__isoc99_scanf(i8* getelementptr inbounds ([3 x i8], [3 x i8]* @.str, i64 0, i64 0), i32* %2)
  %8 = load i32, i32* %2, align 4
  %9 = icmp sge i32 %8, 1000
  br i1 %9, label %10, label %29

10:                                               ; preds = %0
  %11 = load i32, i32* %2, align 4
  %12 = icmp slt i32 %11, 9999
  br i1 %12, label %13, label %29

13:                                               ; preds = %10
  %14 = load i32, i32* %2, align 4
  %15 = sdiv i32 %14, 1000
  store i32 %15, i32* %3, align 4
  %16 = load i32, i32* %2, align 4
  %17 = srem i32 %16, 1000
  %18 = sdiv i32 %17, 100
  store i32 %18, i32* %4, align 4
  %19 = load i32, i32* %2, align 4
  %20 = srem i32 %19, 100
  %21 = sdiv i32 %20, 10
  store i32 %21, i32* %5, align 4
  %22 = load i32, i32* %2, align 4
  %23 = srem i32 %22, 10
  store i32 %23, i32* %6, align 4
  %24 = load i32, i32* %6, align 4
  %25 = load i32, i32* %5, align 4
  %26 = load i32, i32* %4, align 4
  %27 = load i32, i32* %3, align 4
  %28 = call i32 (i8*, ...) @printf(i8* getelementptr inbounds ([9 x i8], [9 x i8]* @.str.1, i64 0, i64 0), i32 %24, i32 %25, i32 %26, i32 %27)
  br label %29

29:                                               ; preds = %13, %10, %0
  %30 = load i32, i32* %2, align 4
  %31 = icmp sge i32 %30, 100
  br i1 %31, label %32, label %47

32:                                               ; preds = %29
  %33 = load i32, i32* %2, align 4
  %34 = icmp slt i32 %33, 999
  br i1 %34, label %35, label %47

35:                                               ; preds = %32
  %36 = load i32, i32* %2, align 4
  %37 = sdiv i32 %36, 100
  store i32 %37, i32* %3, align 4
  %38 = load i32, i32* %2, align 4
  %39 = srem i32 %38, 100
  %40 = sdiv i32 %39, 10
  store i32 %40, i32* %4, align 4
  %41 = load i32, i32* %2, align 4
  %42 = srem i32 %41, 10
  store i32 %42, i32* %5, align 4
  %43 = load i32, i32* %5, align 4
  %44 = load i32, i32* %4, align 4
  %45 = load i32, i32* %3, align 4
  %46 = call i32 (i8*, ...) @printf(i8* getelementptr inbounds ([7 x i8], [7 x i8]* @.str.2, i64 0, i64 0), i32 %43, i32 %44, i32 %45)
  br label %47

47:                                               ; preds = %35, %32, %29
  %48 = load i32, i32* %2, align 4
  %49 = icmp sge i32 %48, 10
  br i1 %49, label %50, label %61

50:                                               ; preds = %47
  %51 = load i32, i32* %2, align 4
  %52 = icmp slt i32 %51, 99
  br i1 %52, label %53, label %61

53:                                               ; preds = %50
  %54 = load i32, i32* %2, align 4
  %55 = sdiv i32 %54, 10
  store i32 %55, i32* %3, align 4
  %56 = load i32, i32* %2, align 4
  %57 = srem i32 %56, 10
  store i32 %57, i32* %4, align 4
  %58 = load i32, i32* %4, align 4
  %59 = load i32, i32* %3, align 4
  %60 = call i32 (i8*, ...) @printf(i8* getelementptr inbounds ([5 x i8], [5 x i8]* @.str.3, i64 0, i64 0), i32 %58, i32 %59)
  br label %61

61:                                               ; preds = %53, %50, %47
  %62 = load i32, i32* %2, align 4
  %63 = icmp sge i32 %62, 1
  br i1 %63, label %64, label %70

64:                                               ; preds = %61
  %65 = load i32, i32* %2, align 4
  %66 = icmp slt i32 %65, 9
  br i1 %66, label %67, label %70

67:                                               ; preds = %64
  %68 = load i32, i32* %2, align 4
  %69 = call i32 (i8*, ...) @printf(i8* getelementptr inbounds ([3 x i8], [3 x i8]* @.str, i64 0, i64 0), i32 %68)
  br label %70

70:                                               ; preds = %67, %64, %61
  %71 = load i32, i32* %2, align 4
  %72 = icmp eq i32 %71, 0
  br i1 %72, label %73, label %75

73:                                               ; preds = %70
  %74 = call i32 (i8*, ...) @printf(i8* getelementptr inbounds ([2 x i8], [2 x i8]* @.str.4, i64 0, i64 0))
  br label %75

75:                                               ; preds = %73, %70
  %76 = load i32, i32* %2, align 4
  %77 = icmp eq i32 %76, 10000
  br i1 %77, label %78, label %80

78:                                               ; preds = %75
  %79 = call i32 (i8*, ...) @printf(i8* getelementptr inbounds ([6 x i8], [6 x i8]* @.str.5, i64 0, i64 0))
  br label %80

80:                                               ; preds = %78, %75
  %81 = load i32, i32* %1, align 4
  ret i32 %81
}

declare dso_local i32 @__isoc99_scanf(i8*, ...) #1

declare dso_local i32 @printf(i8*, ...) #1


!llvm.module.flags = !{!0}
!llvm.ident = !{!1}

!0 = !{i32 1, !"wchar_size", i32 4}
!1 = !{!"clang version 10.0.0-4ubuntu1 "}
